; Function Attrs: mustprogress uwtable
define internal noundef double @_ZNSt17_Function_handlerIFdddEN8QuantLib12_GLOBAL__N_114integs_adapterEE9_M_invokeERKSt9_Any_dataOdS8_(ptr nocapture noundef nonnull readonly align 8 dereferenceable(16) %__functor, ptr nocapture noundef nonnull readonly align 8 dereferenceable(8) %__args, ptr nocapture noundef nonnull readonly align 8 dereferenceable(8) %__args1) #8 align 2 {
entry:
  %__functor.val = load ptr, ptr %__functor, align 8, !tbaa !3
  %__args.val = load double, ptr %__args, align 8, !tbaa !107
  %__args1.val = load double, ptr %__args1, align 8, !tbaa !107
  %0 = load ptr, ptr %__functor.val, align 8, !tbaa !99
  %cmp.not.i.i.i.i = icmp eq ptr %0, null
  br i1 %cmp.not.i.i.i.i, label %cond.false.i.i.i.i, label %_ZSt10__invoke_rIdRN8QuantLib12_GLOBAL__N_114integs_adapterEJddEENSt9enable_ifIX16is_invocable_r_vIT_T0_DpT1_EES5_E4typeEOS6_DpOS7_.exit, !prof !88

cond.false.i.i.i.i:                               ; preds = %entry
  tail call void @_ZN5boost16assertion_failedEPKcS1_S1_l(ptr noundef nonnull @.str.14, ptr noundef nonnull @__PRETTY_FUNCTION__._ZNK5boost10shared_ptrIN8QuantLib21BlackVolTermStructureEEptEv, ptr noundef nonnull @.str.15, i64 noundef 784)
  %.pre.i.i.i.i = load ptr, ptr %__functor.val, align 8, !tbaa !99
  br label %_ZSt10__invoke_rIdRN8QuantLib12_GLOBAL__N_114integs_adapterEJddEENSt9enable_ifIX16is_invocable_r_vIT_T0_DpT1_EES5_E4typeEOS6_DpOS7_.exit

_ZSt10__invoke_rIdRN8QuantLib12_GLOBAL__N_114integs_adapterEJddEENSt9enable_ifIX16is_invocable_r_vIT_T0_DpT1_EES5_E4typeEOS6_DpOS7_.exit: ; preds = %entry, %cond.false.i.i.i.i
  %1 = phi ptr [ %0, %entry ], [ %.pre.i.i.i.i, %cond.false.i.i.i.i ]
  %s.i.i.i = getelementptr inbounds nuw i8, ptr %__functor.val, i64 16
  %2 = load double, ptr %s.i.i.i, align 8, !tbaa !101
  %call2.i.i.i = tail call noundef double @_ZNK8QuantLib21BlackVolTermStructure20blackForwardVarianceEdddb(ptr noundef nonnull align 8 dereferenceable(68) %1, double noundef %__args.val, double noundef %__args1.val, double noundef %2, i1 noundef zeroext true)
  ret double %call2.i.i.i
}